target datalayout = "e-m:e-p270:32:32-p271:32:32-p272:64:64-i64:64-i128:128-f80:128-n8:16:32:64-S128"
target triple = "x86_64-pc-linux-gnu"

%struct._packet_info = type { ptr, ptr, i32, i32, %struct.nstime_t, %struct.nstime_t, %struct.nstime_t, i8, ptr, ptr, ptr, ptr, %struct._address, %struct._address, %struct._address, %struct._address, %struct._address, %struct._address, i32, ptr, i8, [3 x i8], %struct.anon, i32, i32, i32, i32, ptr, i8, ptr, ptr, i16, i16, i32, i32, i16, i32, i32, ptr, ptr, ptr, i8, i8, i16, i16, i16, i32, i16, i16, ptr, ptr, ptr, ptr, ptr, i32, i32 }
%struct.nstime_t = type { i64, i32 }
%struct._address = type { i32, i32, ptr, ptr }
%struct.anon = type { i8, [3 x i8] }
%struct.SslPacketInfo = type { ptr, ptr, i32, i32, i32 }

@proto_dtls = internal global i32 0, align 4
@.str.920 = private unnamed_addr constant [14 x i8] c"both (%u%s%u)\00", align 1
@.str.921 = private unnamed_addr constant [4 x i8] c"\E2\86\94\00", align 1

; Function Attrs: null_pointer_is_valid sspstrong uwtable
define internal void @dtls_both_prompt(ptr noundef %0, ptr noundef %1) #0 {
  %3 = alloca ptr, align 8
  %4 = alloca ptr, align 8
  %5 = alloca ptr, align 8
  %6 = alloca i32, align 4
  %7 = alloca i32, align 4
  store ptr %0, ptr %3, align 8
  store ptr %1, ptr %4, align 8
  call void @llvm.lifetime.start.p0(i64 8, ptr %5) #12
  call void @llvm.lifetime.start.p0(i64 4, ptr %6) #12
  %8 = load ptr, ptr %3, align 8
  %9 = getelementptr inbounds nuw %struct._packet_info, ptr %8, i32 0, i32 24
  %10 = load i32, ptr %9, align 4
  store i32 %10, ptr %6, align 4
  call void @llvm.lifetime.start.p0(i64 4, ptr %7) #12
  %11 = load ptr, ptr %3, align 8
  %12 = getelementptr inbounds nuw %struct._packet_info, ptr %11, i32 0, i32 25
  %13 = load i32, ptr %12, align 8
  store i32 %13, ptr %7, align 4
  %14 = call ptr @wmem_file_scope()
  %15 = load ptr, ptr %3, align 8
  %16 = load i32, ptr @proto_dtls, align 4
  %17 = load ptr, ptr %3, align 8
  %18 = getelementptr inbounds nuw %struct._packet_info, ptr %17, i32 0, i32 41
  %19 = load i8, ptr %18, align 8
  %20 = zext i8 %19 to i32
  %21 = call ptr @p_get_proto_data(ptr noundef %14, ptr noundef %15, i32 noundef %16, i32 noundef %20)
  store ptr %21, ptr %5, align 8
  %22 = load ptr, ptr %5, align 8
  %23 = icmp ne ptr %22, null
  br i1 %23, label %24, label %31

24:                                               ; preds = %2
  %25 = load ptr, ptr %5, align 8
  %26 = getelementptr inbounds nuw %struct.SslPacketInfo, ptr %25, i32 0, i32 2
  %27 = load i32, ptr %26, align 8
  store i32 %27, ptr %6, align 4
  %28 = load ptr, ptr %5, align 8
  %29 = getelementptr inbounds nuw %struct.SslPacketInfo, ptr %28, i32 0, i32 3
  %30 = load i32, ptr %29, align 4
  store i32 %30, ptr %7, align 4
  br label %31

31:                                               ; preds = %24, %2
  %32 = load ptr, ptr %4, align 8
  %33 = load ptr, ptr %4, align 8
  %34 = call i64 @llvm.objectsize.i64.p0(ptr %33, i1 false, i1 true, i1 true)
  %35 = load i32, ptr %6, align 4
  %36 = load i32, ptr %7, align 4
  %37 = call i32 (ptr, i64, i32, i64, ptr, ...) @__snprintf_chk(ptr noundef %32, i64 noundef 200, i32 noundef 2, i64 noundef %34, ptr noundef @.str.920, i32 noundef %35, ptr noundef @.str.921, i32 noundef %36)
  call void @llvm.lifetime.end.p0(i64 4, ptr %7) #12
  call void @llvm.lifetime.end.p0(i64 4, ptr %6) #12
  call void @llvm.lifetime.end.p0(i64 8, ptr %5) #12
  ret void
}