; Function Attrs: null_pointer_is_valid sspstrong uwtable
define internal void @dtls_both_prompt(ptr noundef %0, ptr noundef %1) #0 {
  %3 = getelementptr inbounds nuw i8, ptr %0, i64 284
  %4 = load i32, ptr %3, align 4
  %5 = getelementptr inbounds nuw i8, ptr %0, i64 288
  %6 = load i32, ptr %5, align 8
  %7 = tail call ptr @wmem_file_scope()
  %8 = load i32, ptr @proto_dtls, align 4
  %9 = getelementptr inbounds nuw i8, ptr %0, i64 376
  %10 = load i8, ptr %9, align 8
  %11 = zext i8 %10 to i32
  %12 = tail call ptr @p_get_proto_data(ptr noundef %7, ptr noundef %0, i32 noundef %8, i32 noundef %11)
  %.not = icmp eq ptr %12, null
  br i1 %.not, label %18, label %13

13:                                               ; preds = %2
  %14 = getelementptr inbounds nuw i8, ptr %12, i64 16
  %15 = load i32, ptr %14, align 8
  %16 = getelementptr inbounds nuw i8, ptr %12, i64 20
  %17 = load i32, ptr %16, align 4
  br label %18

18:                                               ; preds = %13, %2
  %.010 = phi i32 [ %15, %13 ], [ %4, %2 ]
  %.0 = phi i32 [ %17, %13 ], [ %6, %2 ]
  %19 = tail call i32 (ptr, i64, i32, i64, ptr, ...) @__snprintf_chk(ptr noundef %1, i64 noundef 200, i32 noundef 2, i64 noundef -1, ptr noundef nonnull @.str.920, i32 noundef %.010, ptr noundef nonnull @.str.921, i32 noundef %.0)
  ret void
}